(ikeras_frcnn.config
Config
p0
(dp1
S'use_vertical_flips'
p2
I00
sS'verbose'
p3
I01
sS'classifier_regr_std'
p4
(lp5
F8.0
aF8.0
aF4.0
aF4.0
asS'classifier_min_overlap'
p6
F0.1
sS'rot_90'
p7
I00
sS'class_mapping'
p8
(dp9
S'n03544143'
p10
I782
sS'n01807496'
p11
I120
sS'n02916936'
p12
I446
sS'n10565667'
p13
I706
sS'n02978881'
p14
I632
sS'n03126707'
p15
I286
sS'n03394916'
p16
I330
sS'n04485082'
p17
I786
sS'n02342885'
p18
I479
sS'n02105412'
p19
I699
sS'n02782093'
p20
I694
sS'n01847000'
p21
I138
sS'n04044716'
p22
I646
sS'n02117135'
p23
I979
sS'n01818515'
p24
I891
sS'n02802426'
p25
I127
sS'n04136333'
p26
I99
sS'n04418357'
p27
I31
sS'n03535780'
p28
I162
sS'n03085013'
p29
I734
sS'n03534580'
p30
I925
sS'n02389026'
p31
I243
sS'n02676566'
p32
I932
sS'n03877845'
p33
I395
sS'n02094114'
p34
I184
sS'n03000247'
p35
I404
sS'n03781244'
p36
I552
sS'n02113023'
p37
I563
sS'n03443371'
p38
I68
sS'n02256656'
p39
I473
sS'n03710193'
p40
I911
sS'n04482393'
p41
I209
sS'n03062245'
p42
I122
sS'n09399592'
p43
I862
sS'n04483307'
p44
I407
sS'n02264363'
p45
I73
sS'n02087394'
p46
I375
sS'n04542943'
p47
I976
sS'n03706229'
p48
I907
sS'n02111129'
p49
I917
sS'n02074367'
p50
I850
sS'n02892767'
p51
I548
sS'n01968897'
p52
I773
sS'n03724870'
p53
I212
sS'n02169497'
p54
I829
sS'n02536864'
p55
I727
sS'n01728920'
p56
I738
sS'n09193705'
p57
I382
sS'n02483362'
p58
I0
sS'n07615774'
p59
I902
sS'n04243546'
p60
I519
sS'n01484850'
p61
I977
sS'n04328186'
p62
I726
sS'n04344873'
p63
I239
sS'n01770393'
p64
I797
sS'n03792782'
p65
I660
sS'n03930313'
p66
I47
sS'n03733131'
p67
I191
sS'n02871525'
p68
I889
sS'n03498962'
p69
I149
sS'n04200800'
p70
I50
sS'n01819313'
p71
I496
sS'n07875152'
p72
I960
sS'n07714571'
p73
I900
sS'n09428293'
p74
I265
sS'n01871265'
p75
I87
sS'n02091032'
p76
I186
sS'n02102318'
p77
I608
sS'n02444819'
p78
I704
sS'bg'
p79
I1000
sS'n02095889'
p80
I23
sS'n02488291'
p81
I622
sS'n01796340'
p82
I819
sS'n03874293'
p83
I827
sS'n04265275'
p84
I613
sS'n03388549'
p85
I806
sS'n07742313'
p86
I367
sS'n02835271'
p87
I329
sS'n03983396'
p88
I959
sS'n07749582'
p89
I761
sS'n03961711'
p90
I975
sS'n01496331'
p91
I521
sS'n03272010'
p92
I118
sS'n01770081'
p93
I484
sS'n03388043'
p94
I605
sS'n03188531'
p95
I590
sS'n07745940'
p96
I824
sS'n02102480'
p97
I743
sS'n02837789'
p98
I235
sS'n02089973'
p99
I481
sS'n01924916'
p100
I865
sS'n02091244'
p101
I263
sS'n04487394'
p102
I737
sS'n01534433'
p103
I566
sS'n04090263'
p104
I894
sS'n02006656'
p105
I987
sS'n04517823'
p106
I914
sS'n02408429'
p107
I318
sS'n03721384'
p108
I698
sS'n03710637'
p109
I105
sS'n02097209'
p110
I760
sS'n03018349'
p111
I5
sS'n02091467'
p112
I833
sS'n02109047'
p113
I378
sS'n03089624'
p114
I91
sS'n03717622'
p115
I423
sS'n01601694'
p116
I78
sS'n13040303'
p117
I56
sS'n02870880'
p118
I729
sS'n04229816'
p119
I868
sS'n02480855'
p120
I611
sS'n01773157'
p121
I451
sS'n02667093'
p122
I615
sS'n02105251'
p123
I860
sS'n03271574'
p124
I383
sS'n04149813'
p125
I292
sS'n04429376'
p126
I327
sS'n02233338'
p127
I788
sS'n04380533'
p128
I962
sS'n02687172'
p129
I48
sS'n02749479'
p130
I368
sS'n02101556'
p131
I421
sS'n07583066'
p132
I123
sS'n02457408'
p133
I652
sS'n01530575'
p134
I683
sS'n01943899'
p135
I416
sS'n03388183'
p136
I915
sS'n04074963'
p137
I266
sS'n01797886'
p138
I117
sS'n02799071'
p139
I876
sS'n09229709'
p140
I554
sS'n02058221'
p141
I215
sS'n03216828'
p142
I140
sS'n02097298'
p143
I204
sS'n03871628'
p144
I843
sS'n02088364'
p145
I618
sS'n04118776'
p146
I649
sS'n03777568'
p147
I388
sS'n02879718'
p148
I842
sS'n04019541'
p149
I875
sS'n02486261'
p150
I214
sS'n02883205'
p151
I657
sS'n01728572'
p152
I723
sS'n02102177'
p153
I398
sS'n03637318'
p154
I18
sS'n01694178'
p155
I9
sS'n03179701'
p156
I643
sS'n02328150'
p157
I399
sS'n03344393'
p158
I640
sS'n04591157'
p159
I441
sS'n03529860'
p160
I525
sS'n03014705'
p161
I851
sS'n04612504'
p162
I170
sS'n03538406'
p163
I606
sS'n01687978'
p164
I800
sS'n04590129'
p165
I311
sS'n03995372'
p166
I620
sS'n02666196'
p167
I969
sS'n04033995'
p168
I592
sS'n02795169'
p169
I577
sS'n02834397'
p170
I116
sS'n03980874'
p171
I602
sS'n03888605'
p172
I924
sS'n03729826'
p173
I880
sS'n02093754'
p174
I419
sS'n03042490'
p175
I261
sS'n02980441'
p176
I742
sS'n03627232'
p177
I487
sS'n04532670'
p178
I701
sS'n01491361'
p179
I27
sS'n02791124'
p180
I855
sS'n01882714'
p181
I885
sS'n07768694'
p182
I252
sS'n01756291'
p183
I869
sS'n02988304'
p184
I784
sS'n02672831'
p185
I741
sS'n03843555'
p186
I665
sS'n02110627'
p187
I901
sS'n01693334'
p188
I954
sS'n03249569'
p189
I32
sS'n04037443'
p190
I816
sS'n02112018'
p191
I158
sS'n04548280'
p192
I88
sS'n01560419'
p193
I389
sS'n03425413'
p194
I69
sS'n03874599'
p195
I877
sS'n02607072'
p196
I785
sS'n02493793'
p197
I203
sS'n02783161'
p198
I320
sS'n02669723'
p199
I522
sS'n01644373'
p200
I295
sS'n02492660'
p201
I370
sS'n02894605'
p202
I190
sS'n07584110'
p203
I858
sS'n04404412'
p204
I801
sS'n04476259'
p205
I591
sS'n03840681'
p206
I64
sS'n04033901'
p207
I817
sS'n02317335'
p208
I798
sS'n02487347'
p209
I909
sS'n02134084'
p210
I839
sS'n04505470'
p211
I740
sS'n03201208'
p212
I527
sS'n04486054'
p213
I34
sS'n03837869'
p214
I380
sS'n01749939'
p215
I424
sS'n03125729'
p216
I425
sS'n04254680'
p217
I213
sS'n07720875'
p218
I321
sS'n03814639'
p219
I579
sS'n06874185'
p220
I377
sS'n04286575'
p221
I284
sS'n03887697'
p222
I757
sS'n02951585'
p223
I531
sS'n03942813'
p224
I474
sS'n01914609'
p225
I357
sS'n02948072'
p226
I517
sS'n03095699'
p227
I326
sS'n02807133'
p228
I728
sS'n03661043'
p229
I807
sS'n07613480'
p230
I758
sS'n02119789'
p231
I837
sS'n03376595'
p232
I766
sS'n02206856'
p233
I406
sS'n04147183'
p234
I268
sS'n03527444'
p235
I713
sS'n03697007'
p236
I847
sS'n04228054'
p237
I550
sS'n04579145'
p238
I526
sS'n02443484'
p239
I483
sS'n03877472'
p240
I90
sS'n02804610'
p241
I112
sS'n04040759'
p242
I323
sS'n04579432'
p243
I545
sS'n02088632'
p244
I174
sS'n02280649'
p245
I411
sS'n03761084'
p246
I968
sS'n02086910'
p247
I356
sS'n02114712'
p248
I732
sS'n03000134'
p249
I882
sS'n04005630'
p250
I450
sS'n01776313'
p251
I371
sS'n02085936'
p252
I508
sS'n02110341'
p253
I809
sS'n03924679'
p254
I133
sS'n02415577'
p255
I485
sS'n02398521'
p256
I188
sS'n03743016'
p257
I70
sS'n01755581'
p258
I689
sS'n03785016'
p259
I74
sS'n02363005'
p260
I434
sS'n01824575'
p261
I238
sS'n03494278'
p262
I202
sS'n04099969'
p263
I142
sS'n02268443'
p264
I478
sS'n02977058'
p265
I695
sS'n01641577'
p266
I296
sS'n02012849'
p267
I401
sS'n07734744'
p268
I637
sS'n03868863'
p269
I572
sS'n01774750'
p270
I277
sS'n07565083'
p271
I583
sS'n02088094'
p272
I150
sS'n02089867'
p273
I838
sS'n03916031'
p274
I575
sS'n03599486'
p275
I624
sS'n07920052'
p276
I482
sS'n04152593'
p277
I168
sS'n04435653'
p278
I437
sS'n03794056'
p279
I51
sS'n03884397'
p280
I830
sS'n02391049'
p281
I346
sS'n04153751'
p282
I181
sS'n01806567'
p283
I169
sS'n07760859'
p284
I895
sS'n02106662'
p285
I331
sS'n01632458'
p286
I916
sS'n02279972'
p287
I844
sS'n02002724'
p288
I264
sS'n03481172'
p289
I921
sS'n02704792'
p290
I668
sS'n02979186'
p291
I11
sS'n04336792'
p292
I835
sS'n02007558'
p293
I166
sS'n04525305'
p294
I244
sS'n04550184'
p295
I696
sS'n04285008'
p296
I102
sS'n02027492'
p297
I227
sS'n04597913'
p298
I429
sS'n01843065'
p299
I854
sS'n04560804'
p300
I17
sS'n02950826'
p301
I480
sS'n03935335'
p302
I131
sS'n04192698'
p303
I944
sS'n02321529'
p304
I457
sS'n03776460'
p305
I94
sS'n01910747'
p306
I650
sS'n03929660'
p307
I679
sS'n04366367'
p308
I585
sS'n03400231'
p309
I890
sS'n04116512'
p310
I192
sS'n03793489'
p311
I814
sS'n07930864'
p312
I410
sS'n03838899'
p313
I934
sS'n02514041'
p314
I993
sS'n02690373'
p315
I226
sS'n02281787'
p316
I49
sS'n03775071'
p317
I755
sS'n03485794'
p318
I175
sS'n02114548'
p319
I551
sS'n03450230'
p320
I255
sS'n01443537'
p321
I596
sS'n02692877'
p322
I908
sS'n02086079'
p323
I581
sS'n04554684'
p324
I790
sS'n01632777'
p325
I697
sS'n03649909'
p326
I670
sS'n04330267'
p327
I938
sS'n03110669'
p328
I273
sS'n01990800'
p329
I881
sS'n04447861'
p330
I494
sS'n04355338'
p331
I778
sS'n03804744'
p332
I682
sS'n02107683'
p333
I234
sS'n02128757'
p334
I781
sS'n04201297'
p335
I390
sS'n03954731'
p336
I77
sS'n02094433'
p337
I108
sS'n02396427'
p338
I232
sS'n01829413'
p339
I822
sS'n02096051'
p340
I283
sS'n03676483'
p341
I109
sS'n01855032'
p342
I703
sS'n02120505'
p343
I171
sS'n02037110'
p344
I533
sS'n07693725'
p345
I715
sS'n09421951'
p346
I539
sS'n02093991'
p347
I995
sS'n01978455'
p348
I749
sS'n02051845'
p349
I387
sS'n02504013'
p350
I638
sS'n03908618'
p351
I752
sS'n03457902'
p352
I350
sS'n04392985'
p353
I886
sS'n02641379'
p354
I472
sS'n02859443'
p355
I926
sS'n02493509'
p356
I24
sS'n01704323'
p357
I510
sS'n01735189'
p358
I998
sS'n12768682'
p359
I447
sS'n03832673'
p360
I125
sS'n03633091'
p361
I770
sS'n02116738'
p362
I300
sS'n03657121'
p363
I940
sS'n03786901'
p364
I67
sS'n01677366'
p365
I967
sS'n01978287'
p366
I180
sS'n02137549'
p367
I722
sS'n03742115'
p368
I179
sS'n04465501'
p369
I936
sS'n02099712'
p370
I66
sS'n03773504'
p371
I992
sS'n02097474'
p372
I52
sS'n07695742'
p373
I245
sS'n02699494'
p374
I988
sS'n02107142'
p375
I989
sS'n12144580'
p376
I362
sS'n04557648'
p377
I12
sS'n02992529'
p378
I529
sS'n03146219'
p379
I13
sS'n03445777'
p380
I337
sS'n02488702'
p381
I671
sS'n02128925'
p382
I236
sS'n02509815'
p383
I771
sS'n03127747'
p384
I524
sS'n07753592'
p385
I955
sS'n02128385'
p386
I270
sS'n02107574'
p387
I364
sS'n04254777'
p388
I289
sS'n04332243'
p389
I262
sS'n02091134'
p390
I495
sS'n02823428'
p391
I291
sS'n01806143'
p392
I942
sS'n01877812'
p393
I751
sS'n03982430'
p394
I353
sS'n02111889'
p395
I509
sS'n04442312'
p396
I55
sS'n04515003'
p397
I866
sS'n03196217'
p398
I81
sS'n03272562'
p399
I791
sS'n07753275'
p400
I570
sS'n02797295'
p401
I464
sS'n02910353'
p402
I322
sS'n02025239'
p403
I164
sS'n03764736'
p404
I92
sS'n02092339'
p405
I62
sS'n03290653'
p406
I241
sS'n04154565'
p407
I836
sS'n01983481'
p408
I338
sS'n01532829'
p409
I8
sS'n04487081'
p410
I197
sS'n03598930'
p411
I666
sS'n03902125'
p412
I574
sS'n01667778'
p413
I107
sS'n02787622'
p414
I110
sS'n02971356'
p415
I648
sS'n04277352'
p416
I884
sS'n13054560'
p417
I301
sS'n07718472'
p418
I26
sS'n02101006'
p419
I556
sS'n06785654'
p420
I735
sS'n07754684'
p421
I408
sS'n03938244'
p422
I861
sS'n02219486'
p423
I544
sS'n01739381'
p424
I878
sS'n04310018'
p425
I870
sS'n04456115'
p426
I57
sS'n02097658'
p427
I470
sS'n04252225'
p428
I486
sS'n03769881'
p429
I167
sS'n03796401'
p430
I161
sS'n03770679'
p431
I799
sS'n03444034'
p432
I445
sS'n02167151'
p433
I673
sS'n06794110'
p434
I339
sS'n01917289'
p435
I930
sS'n02095570'
p436
I676
sS'n01855672'
p437
I225
sS'n02096177'
p438
I466
sS'n01986214'
p439
I688
sS'n04258138'
p440
I672
sS'n03763968'
p441
I538
sS'n03016953'
p442
I565
sS'n03393912'
p443
I656
sS'n03240683'
p444
I231
sS'n01695060'
p445
I4
sS'n03958227'
p446
I303
sS'n02417914'
p447
I412
sS'n02091831'
p448
I403
sS'n07892512'
p449
I444
sS'n01768244'
p450
I121
sS'n02410509'
p451
I275
sS'n02422106'
p452
I405
sS'n02437312'
p453
I747
sS'n12267677'
p454
I804
sS'n02113712'
p455
I469
sS'n02701002'
p456
I439
sS'n04204238'
p457
I193
sS'n07248320'
p458
I347
sS'n02843684'
p459
I145
sS'n03530642'
p460
I607
sS'n02483708'
p461
I610
sS'n02009912'
p462
I985
sS'n02109525'
p463
I796
sS'n02165456'
p464
I888
sS'n02105855'
p465
I505
sS'n01980166'
p466
I224
sS'n01644900'
p467
I513
sS'n02497673'
p468
I616
sS'n03461385'
p469
I39
sS'n04209239'
p470
I63
sS'n04039381'
p471
I65
sS'n03956157'
p472
I258
sS'n04461696'
p473
I719
sS'n03476684'
p474
I394
sS'n03733805'
p475
I308
sS'n02108089'
p476
I863
sS'n04606251'
p477
I198
sS'n03929855'
p478
I733
sS'n02100877'
p479
I333
sS'n01753488'
p480
I883
sS'n03218198'
p481
I40
sS'n04458633'
p482
I812
sS'n07871810'
p483
I501
sS'n04259630'
p484
I152
sS'n15075141'
p485
I139
sS'n13133613'
p486
I973
sS'n04325704'
p487
I748
sS'n02071294'
p488
I29
sS'n02966193'
p489
I553
sS'n04296562'
p490
I765
sS'n02090379'
p491
I947
sS'n03888257'
p492
I736
sS'n03873416'
p493
I604
sS'n01820546'
p494
I586
sS'n01984695'
p495
I601
sS'n02123597'
p496
I199
sS'n01689811'
p497
I96
sS'n02066245'
p498
I846
sS'n03662601'
p499
I95
sS'n02930766'
p500
I228
sS'n03992509'
p501
I267
sS'n04131690'
p502
I259
sS'n02009229'
p503
I681
sS'n03485407'
p504
I468
sS'n03803284'
p505
I935
sS'n04552348'
p506
I201
sS'n07715103'
p507
I759
sS'n01608432'
p508
I316
sS'n04509417'
p509
I176
sS'n02096437'
p510
I35
sS'n03944341'
p511
I826
sS'n02104365'
p512
I373
sS'n02777292'
p513
I999
sS'n01930112'
p514
I194
sS'n02119022'
p515
I281
sS'n04204347'
p516
I341
sS'n03026506'
p517
I811
sS'n01985128'
p518
I19
sS'n02018207'
p519
I540
sS'n03075370'
p520
I981
sS'n01614925'
p521
I589
sS'n02094258'
p522
I686
sS'n07747607'
p523
I562
sS'n01945685'
p524
I939
sS'n03720891'
p525
I507
sS'n07730033'
p526
I114
sS'n04372370'
p527
I627
sS'n03680355'
p528
I358
sS'n04326547'
p529
I325
sS'n02093647'
p530
I941
sS'n04562935'
p531
I961
sS'n04026417'
p532
I927
sS'n01729322'
p533
I663
sS'n04251144'
p534
I417
sS'n04356056'
p535
I384
sS'n04273569'
p536
I272
sS'n07716358'
p537
I588
sS'n04238763'
p538
I16
sS'n02091635'
p539
I409
sS'n02096294'
p540
I504
sS'n02174001'
p541
I452
sS'n02895154'
p542
I849
sS'n04270147'
p543
I453
sS'n02132136'
p544
I705
sS'n02776631'
p545
I503
sS'n04081281'
p546
I598
sS'n03133878'
p547
I653
sS'n03467068'
p548
I982
sS'n07932039'
p549
I1
sS'n06359193'
p550
I949
sS'n07873807'
p551
I832
sS'n02364673'
p552
I459
sS'n03384352'
p553
I920
sS'n02129604'
p554
I678
sS'n03825788'
p555
I739
sS'n04501370'
p556
I233
sS'n13052670'
p557
I302
sS'n02130308'
p558
I200
sS'n03532672'
p559
I488
sS'n01828970'
p560
I892
sS'n01697457'
p561
I461
sS'n02277742'
p562
I964
sS'n04118538'
p563
I103
sS'n04355933'
p564
I720
sS'n03891251'
p565
I754
sS'n04591713'
p566
I951
sS'n07860988'
p567
I126
sS'n02108551'
p568
I910
sS'n04311004'
p569
I567
sS'n02113186'
p570
I994
sS'n02123394'
p571
I396
sS'n03482405'
p572
I571
sS'n02099849'
p573
I435
sS'n01817953'
p574
I3
sS'n02480495'
p575
I614
sS'n12998815'
p576
I22
sS'n02028035'
p577
I156
sS'n02013706'
p578
I692
sS'n02727426'
p579
I418
sS'n03710721'
p580
I324
sS'n03666591'
p581
I143
sS'n02963159'
p582
I59
sS'n03857828'
p583
I271
sS'n01616318'
p584
I136
sS'n02090622'
p585
I776
sS'n02510455'
p586
I287
sS'n04371430'
p587
I710
sS'n02168699'
p588
I251
sS'n04553703'
p589
I400
sS'n02268853'
p590
I745
sS'n03788195'
p591
I520
sS'n02454379'
p592
I645
sS'n02190166'
p593
I2
sS'n03459775'
p594
I603
sS'n01774384'
p595
I165
sS'n02817516'
p596
I448
sS'n03908714'
p597
I348
sS'n07579787'
p598
I119
sS'n03291819'
p599
I896
sS'n07836838'
p600
I559
sS'n02098413'
p601
I764
sS'n04347754'
p602
I223
sS'n02114855'
p603
I906
sS'n07717410'
p604
I319
sS'n04004767'
p605
I978
sS'n04584207'
p606
I86
sS'n13044778'
p607
I918
sS'n03690938'
p608
I709
sS'n03623198'
p609
I677
sS'n02109961'
p610
I221
sS'n02606052'
p611
I756
sS'n04479046'
p612
I712
sS'n03814906'
p613
I135
sS'n02089078'
p614
I80
sS'n09246464'
p615
I595
sS'n01744401'
p616
I912
sS'n03314780'
p617
I573
sS'n02643566'
p618
I306
sS'n04275548'
p619
I546
sS'n02825657'
p620
I345
sS'n02104029'
p621
I413
sS'n02877765'
p622
I825
sS'n04008634'
p623
I857
sS'n01664065'
p624
I599
sS'n03197337'
p625
I948
sS'n01631663'
p626
I402
sS'n02865351'
p627
I376
sS'n07590611'
p628
I818
sS'n01692333'
p629
I905
sS'n03355925'
p630
I30
sS'n04266014'
p631
I535
sS'n02108422'
p632
I422
sS'n04409515'
p633
I635
sS'n04523525'
p634
I219
sS'n07717556'
p635
I372
sS'n02110806'
p636
I428
sS'n01629819'
p637
I547
sS'n07714990'
p638
I864
sS'n07831146'
p639
I631
sS'n09332890'
p640
I629
sS'n03207941'
p641
I146
sS'n03180011'
p642
I465
sS'n03131574'
p643
I242
sS'n03250847'
p644
I137
sS'n03255030'
p645
I500
sS'n03127925'
p646
I893
sS'n01682714'
p647
I359
sS'n03775546'
p648
I20
sS'n01843383'
p649
I498
sS'n03404251'
p650
I254
sS'n04162706'
p651
I897
sS'n01734418'
p652
I774
sS'n02769748'
p653
I414
sS'n02033041'
p654
I336
sS'n03594734'
p655
I274
sS'n02808304'
p656
I928
sS'n02095314'
p657
I541
sS'n04599235'
p658
I46
sS'n03866082'
p659
I708
sS'n04041544'
p660
I953
sS'n04141327'
p661
I702
sS'n02259212'
p662
I216
sS'n03891332'
p663
I210
sS'n02927161'
p664
I684
sS'n01665541'
p665
I721
sS'n02115641'
p666
I685
sS'n01592084'
p667
I269
sS'n02437616'
p668
I780
sS'n03476991'
p669
I397
sS'n04522168'
p670
I82
sS'n04376876'
p671
I100
sS'n04357314'
p672
I549
sS'n04613696'
p673
I28
sS'n02397096'
p674
I97
sS'n03297495'
p675
I821
sS'n04398044'
p676
I132
sS'n03063689'
p677
I449
sS'n03788365'
p678
I294
sS'n02100236'
p679
I644
sS'n02101388'
p680
I335
sS'n03709823'
p681
I6
sS'n07614500'
p682
I990
sS'n02823750'
p683
I636
sS'n03496892'
p684
I280
sS'n02917067'
p685
I185
sS'n04127249'
p686
I714
sS'n07718747'
p687
I278
sS'n01833805'
p688
I659
sS'n02992211'
p689
I623
sS'n02115913'
p690
I374
sS'n02110185'
p691
I903
sS'n01742172'
p692
I44
sS'n04525038'
p693
I970
sS'n12985857'
p694
I43
sS'n02097130'
p695
I879
sS'n02422699'
p696
I361
sS'n01784675'
p697
I476
sS'n01514859'
p698
I763
sS'n07697313'
p699
I996
sS'n04589890'
p700
I767
sS'n04209133'
p701
I560
sS'n04254120'
p702
I420
sS'n02423022'
p703
I984
sS'n03483316'
p704
I853
sS'n02093256'
p705
I415
sS'n03947888'
p706
I561
sS'n02909870'
p707
I366
sS'n03325584'
p708
I609
sS'n02085620'
p709
I515
sS'n01981276'
p710
I795
sS'n04263257'
p711
I871
sS'n01582220'
p712
I680
sS'n03345487'
p713
I787
sS'n03379051'
p714
I674
sS'n01685808'
p715
I61
sS'n03452741'
p716
I848
sS'n04346328'
p717
I845
sS'n09288635'
p718
I534
sS'n02102973'
p719
I205
sS'n02788148'
p720
I820
sS'n02447366'
p721
I101
sS'n03445924'
p722
I651
sS'n01872401'
p723
I38
sS'n04423845'
p724
I182
sS'n04208210'
p725
I312
sS'n03899768'
p726
I248
sS'n03424325'
p727
I789
sS'n01494475'
p728
I385
sS'n03791053'
p729
I769
sS'n02113624'
p730
I823
sS'n04125021'
p731
I462
sS'n02236044'
p732
I612
sS'n01675722'
p733
I317
sS'n02490219'
p734
I84
sS'n02231487'
p735
I475
sS'n03933933'
p736
I85
sS'n01955084'
p737
I206
sS'n11939491'
p738
I147
sS'n04443257'
p739
I222
sS'n03208938'
p740
I106
sS'n02445715'
p741
I537
sS'n03770439'
p742
I576
sS'n02113799'
p743
I810
sS'n02112706'
p744
I14
sS'n03124170'
p745
I497
sS'n04604644'
p746
I360
sS'n02814860'
p747
I933
sS'n02099429'
p748
I304
sS'n02106382'
p749
I313
sS'n12057211'
p750
I458
sS'n02093859'
p751
I980
sS'n01740131'
p752
I628
sS'n02229544'
p753
I972
sS'n02107312'
p754
I443
sS'n01580077'
p755
I639
sS'n02708093'
p756
I392
sS'n02088238'
p757
I54
sS'n03045698'
p758
I834
sS'n03937543'
p759
I568
sS'n03041632'
p760
I160
sS'n03930630'
p761
I391
sS'n01688243'
p762
I516
sS'n02112137'
p763
I189
sS'n07697537'
p764
I943
sS'n02124075'
p765
I730
sS'n03642806'
p766
I952
sS'n04067472'
p767
I578
sS'n04540053'
p768
I841
sS'n02106166'
p769
I365
sS'n02489166'
p770
I328
sS'n02395406'
p771
I717
sS'n03673027'
p772
I343
sS'n02125311'
p773
I79
sS'n04536866'
p774
I130
sS'n02098286'
p775
I852
sS'n04141975'
p776
I633
sS'n03792972'
p777
I600
sS'n02105641'
p778
I386
sS'n03372029'
p779
I460
sS'n02092002'
p780
I253
sS'n02011460'
p781
I958
sS'n04065272'
p782
I511
sS'n03970156'
p783
I282
sS'n04335435'
p784
I134
sS'n03207743'
p785
I293
sS'n02002556'
p786
I558
sS'n01518878'
p787
I808
sS'n01440764'
p788
I104
sS'n03976657'
p789
I290
sS'n01773797'
p790
I148
sS'n04235860'
p791
I159
sS'n02112350'
p792
I315
sS'n02056570'
p793
I746
sS'n13037406'
p794
I974
sS'n02484975'
p795
I716
sS'n03998194'
p796
I10
sS'n02443114'
p797
I690
sS'n03590841'
p798
I642
sS'n03868242'
p799
I898
sS'n02120079'
p800
I33
sS'n03223299'
p801
I626
sS'n02492035'
p802
I53
sS'n04146614'
p803
I454
sS'n02869837'
p804
I753
sS'n01798484'
p805
I530
sS'n02814533'
p806
I502
sS'n01748264'
p807
I919
sS'n04252077'
p808
I700
sS'n02346627'
p809
I163
sS'n02966687'
p810
I859
sS'n04141076'
p811
I355
sS'n04507155'
p812
I438
sS'n02403003'
p813
I923
sS'n02100583'
p814
I41
sS'n03478589'
p815
I718
sS'n02906734'
p816
I966
sS'n04389033'
p817
I512
sS'n02105162'
p818
I783
sS'n02096585'
p819
I332
sS'n03134739'
p820
I314
sS'n02860847'
p821
I655
sS'n02129165'
p822
I965
sS'n02804414'
p823
I37
sS'n01860187'
p824
I593
sS'n01498041'
p825
I991
sS'n01630670'
p826
I831
sS'n12620546'
p827
I250
sS'n03692522'
p828
I669
sS'n07753113'
p829
I111
sS'n02106550'
p830
I963
sS'n03259280'
p831
I352
sS'n02085782'
p832
I155
sS'n04070727'
p833
I247
sS'n02655020'
p834
I334
sS'n02793495'
p835
I427
sS'n04493381'
p836
I89
sS'n02361337'
p837
I564
sS'n02815834'
p838
I840
sS'n02088466'
p839
I489
sS'n04548362'
p840
I342
sS'n02486410'
p841
I594
sS'n02114367'
p842
I711
sS'n03594945'
p843
I580
sS'n04264628'
p844
I693
sS'n03854065'
p845
I956
sS'n03337140'
p846
I297
sS'n11879895'
p847
I93
sS'n02111500'
p848
I913
sS'n04417672'
p849
I379
sS'n02093428'
p850
I661
sS'n03691459'
p851
I363
sS'n04239074'
p852
I506
sS'n01944390'
p853
I173
sS'n09256479'
p854
I154
sS'n04311174'
p855
I904
sS'n03782006'
p856
I929
sS'n04120489'
p857
I899
sS'n04023962'
p858
I249
sS'n03017168'
p859
I792
sS'n04399382'
p860
I240
sS'n02177972'
p861
I528
sS'n03602883'
p862
I518
sS'n02172182'
p863
I675
sS'n02791270'
p864
I647
sS'n02097047'
p865
I557
sS'n02481823'
p866
I872
sS'n03447721'
p867
I75
sS'n09472597'
p868
I42
sS'n07716906'
p869
I491
sS'n02281406'
p870
I436
sS'n03876231'
p871
I60
sS'n03991062'
p872
I654
sS'n04069434'
p873
I115
sS'n03495258'
p874
I351
sS'n04467665'
p875
I621
sS'n02442845'
p876
I542
sS'n04111531'
p877
I750
sS'n02108000'
p878
I217
sS'n02100735'
p879
I237
sS'n02077923'
p880
I587
sS'n03950228'
p881
I369
sS'n03028079'
p882
I426
sS'n04086273'
p883
I211
sS'n03895866'
p884
I220
sS'n03787032'
p885
I499
sS'n01531178'
p886
I641
sS'n02110958'
p887
I887
sS'n01751748'
p888
I177
sS'n03658185'
p889
I58
sS'n03584829'
p890
I257
sS'n01795545'
p891
I532
sS'n02107908'
p892
I178
sS'n04179913'
p893
I856
sS'n02319095'
p894
I455
sS'n03841143'
p895
I584
sS'n01514668'
p896
I658
sS'n03124043'
p897
I76
sS'n03047690'
p898
I430
sS'n02892201'
p899
I71
sS'n01775062'
p900
I793
sS'n04370456'
p901
I514
sS'n03100240'
p902
I667
sS'n01773549'
p903
I229
sS'n03141823'
p904
I195
sS'n02965783'
p905
I803
sS'n02099267'
p906
I997
sS'n03967562'
p907
I124
sS'n03903868'
p908
I98
sS'n03417042'
p909
I687
sS'n02951358'
p910
I731
sS'n01558993'
p911
I768
sS'n03063599'
p912
I493
sS'n02090721'
p913
I725
sS'n02526121'
p914
I777
sS'n01667114'
p915
I260
sS'n09835506'
p916
I724
sS'n07880968'
p917
I128
sS'n04133789'
p918
I113
sS'n02133161'
p919
I456
sS'n02018795'
p920
I950
sS'n02106030'
p921
I276
sS'n01950731'
p922
I543
sS'n02123045'
p923
I772
sS'n04350905'
p924
I305
sS'n07711569'
p925
I393
sS'n02356798'
p926
I344
sS'n07684084'
p927
I707
sS'n02999410'
p928
I555
sS'n03595614'
p929
I381
sS'n03617480'
p930
I187
sS'n04049303'
p931
I279
sS'n02098105'
p932
I492
sS'n03920288'
p933
I619
sS'n06596364'
p934
I196
sS'n02786058'
p935
I354
sS'n02326432'
p936
I617
sS'n04367480'
p937
I129
sS'n02840245'
p938
I246
sS'n04317175'
p939
I569
sS'n03777754'
p940
I874
sS'n02123159'
p941
I813
sS'n02640242'
p942
I21
sS'n03109150'
p943
I971
sS'n02730930'
p944
I597
sS'n02808440'
p945
I230
sS'n01537544'
p946
I285
sS'n02165105'
p947
I299
sS'n02325366'
p948
I349
sS'n02138441'
p949
I183
sS'n02974003'
p950
I72
sS'n03630383'
p951
I440
sS'n02412080'
p952
I307
sS'n01873310'
p953
I256
sS'n02226429'
p954
I467
sS'n03759954'
p955
I490
sS'n02113978'
p956
I340
sS'n02086646'
p957
I815
sS'n02108915'
p958
I471
sS'n03447447'
p959
I25
sS'n03670208'
p960
I937
sS'n03220513'
p961
I144
sS'n02087046'
p962
I7
sS'n03065424'
p963
I805
sS'n02099601'
p964
I309
sS'n03032252'
p965
I931
sS'n02747177'
p966
I172
sS'n02127052'
p967
I779
sS'n04592741'
p968
I157
sS'n03000684'
p969
I208
sS'n01729977'
p970
I873
sS'n02105056'
p971
I433
sS'n02105505'
p972
I983
sS'n01883070'
p973
I463
sS'n02494079'
p974
I432
sS'n03347037'
p975
I957
sS'n01698640'
p976
I141
sS'n04532106'
p977
I946
sS'n03187595'
p978
I664
sS'n09468604'
p979
I442
sS'n03976467'
p980
I15
sS'n02790996'
p981
I536
sS'n04428191'
p982
I582
sS'n02276258'
p983
I744
sS'n03733281'
p984
I986
sS'n01622779'
p985
I298
sS'n02110063'
p986
I36
sS'n02134418'
p987
I218
sS'n02500267'
p988
I45
sS'n02939185'
p989
I662
sS'n10148035'
p990
I634
sS'n03160309'
p991
I523
sS'n02017213'
p992
I625
sS'n04009552'
p993
I945
sS'n07802026'
p994
I922
sS'n03977966'
p995
I83
sS'n02086240'
p996
I828
sS'n03584254'
p997
I207
sS'n04371774'
p998
I310
sS'n01737021'
p999
I867
sS'n02981792'
p1000
I691
sS'n02102040'
p1001
I762
sS'n02441942'
p1002
I431
sS'n04596742'
p1003
I802
sS'n02111277'
p1004
I477
sS'n02794156'
p1005
I153
sS'n01669191'
p1006
I630
sS'n02841315'
p1007
I151
sS'n03492542'
p1008
I288
sS'n04462240'
p1009
I794
sS'n02504458'
p1010
I775
ssS'use_horizontal_flips'
p1011
I00
sS'rpn_max_overlap'
p1012
F0.7
sS'network'
p1013
S'vgg'
p1014
sS'img_channel_mean'
p1015
(lp1016
F103.939
aF116.779
aF123.68
asS'balanced_classes'
p1017
I00
sS'anchor_box_ratios'
p1018
(lp1019
(lp1020
I1
aI1
aa(lp1021
I1
aI2
aa(lp1022
I2
aI1
aasS'img_scaling_factor'
p1023
F1.0
sS'rpn_stride'
p1024
I16
sS'num_rois'
p1025
I32
sS'base_net_weights'
p1026
S'vgg16_weights_tf_dim_ordering_tf_kernels.h5'
p1027
sS'anchor_box_scales'
p1028
(lp1029
I128
aI256
aI512
asS'rpn_min_overlap'
p1030
F0.3
sS'model_path'
p1031
S'./model_frcnn.hdf5'
p1032
sS'classifier_max_overlap'
p1033
F0.5
sS'std_scaling'
p1034
F4.0
sS'im_size'
p1035
I600
sb.